; Function Attrs: mustprogress nofree norecurse nosync nounwind willreturn memory(read, inaccessiblemem: none) uwtable
define hidden noundef zeroext i1 @_ZN16BCEscapeAnalyzer11returns_allENS_11ArgumentMapE(ptr nocapture noundef nonnull readonly align 8 dereferenceable(196) %0, i32 %1) local_unnamed_addr #2 align 2 {
  %3 = getelementptr inbounds i8, ptr %0, i64 32
  %4 = load i32, ptr %3, align 8
  %5 = icmp slt i32 %4, 1
  br i1 %5, label %_ZNK9VectorSet4testEj.exit.thread, label %.lr.ph

.lr.ph:                                           ; preds = %2
  %6 = getelementptr inbounds i8, ptr %0, i64 104
  %7 = load i32, ptr %6, align 8
  %8 = getelementptr inbounds i8, ptr %0, i64 112
  %9 = load ptr, ptr %8, align 8
  br label %10

10:                                               ; preds = %.lr.ph, %22
  %11 = phi i1 [ false, %.lr.ph ], [ %24, %22 ]
  %.08 = phi i32 [ 0, %.lr.ph ], [ %23, %22 ]
  %spec.store.select.i.i = tail call i32 @llvm.umin.i32(i32 %.08, i32 29)
  %12 = shl nuw i32 4, %spec.store.select.i.i
  %13 = and i32 %12, %1
  %.not = icmp eq i32 %13, 0
  br i1 %.not, label %22, label %14

14:                                               ; preds = %10
  %15 = lshr i32 %.08, 5
  %.not.i = icmp ult i32 %15, %7
  br i1 %.not.i, label %_ZNK9VectorSet4testEj.exit, label %_ZNK9VectorSet4testEj.exit.thread

_ZNK9VectorSet4testEj.exit:                       ; preds = %14
  %16 = and i32 %.08, 31
  %17 = shl nuw i32 1, %16
  %18 = zext nneg i32 %15 to i64
  %19 = getelementptr inbounds i32, ptr %9, i64 %18
  %20 = load i32, ptr %19, align 4
  %21 = and i32 %20, %17
  %.not7 = icmp eq i32 %21, 0
  br i1 %.not7, label %_ZNK9VectorSet4testEj.exit.thread, label %22

22:                                               ; preds = %10, %_ZNK9VectorSet4testEj.exit
  %23 = add nuw nsw i32 %.08, 1
  %24 = icmp sge i32 %23, %4
  %exitcond = icmp eq i32 %23, %4
  br i1 %exitcond, label %_ZNK9VectorSet4testEj.exit.thread, label %10, !llvm.loop !10

_ZNK9VectorSet4testEj.exit.thread:                ; preds = %_ZNK9VectorSet4testEj.exit, %22, %14, %2
  %.lcssa = phi i1 [ true, %2 ], [ %11, %14 ], [ %24, %22 ], [ %11, %_ZNK9VectorSet4testEj.exit ]
  ret i1 %.lcssa
}